target datalayout = "e-m:e-p270:32:32-p271:32:32-p272:64:64-i64:64-i128:128-f80:128-n8:16:32:64-S128"
target triple = "x86_64-unknown-linux-gnu"

%"class.std::__shared_count" = type { ptr }
%"class.std::shared_ptr.25" = type { %"class.std::__shared_ptr.26" }
%"class.std::__shared_ptr.26" = type { ptr, %"class.std::__shared_count" }
%"class.openvdb::v11_0::compression::PagedInputStream" = type <{ i32, i32, ptr, %"class.std::shared_ptr.25", i8, [7 x i8] }>

; Function Attrs: mustprogress nounwind uwtable
define linkonce_odr void @_ZNSt14__shared_countILN9__gnu_cxx12_Lock_policyE2EEC2Ev(ptr noundef nonnull align 8 dereferenceable(8) %this) unnamed_addr #4 comdat align 2 {
entry:
  %this.addr = alloca ptr, align 8
  store ptr %this, ptr %this.addr, align 8
  %this1 = load ptr, ptr %this.addr, align 8
  %_M_pi = getelementptr inbounds %"class.std::__shared_count", ptr %this1, i32 0, i32 0
  store ptr null, ptr %_M_pi, align 8
  ret void
}

; Function Attrs: mustprogress nounwind uwtable
define linkonce_odr void @_ZNSt12__shared_ptrIN7openvdb5v11_011compression4PageELN9__gnu_cxx12_Lock_policyE2EEC2Ev(ptr noundef nonnull align 8 dereferenceable(16) %this) unnamed_addr #4 comdat align 2 {
entry:
  %this.addr = alloca ptr, align 8
  store ptr %this, ptr %this.addr, align 8
  %this1 = load ptr, ptr %this.addr, align 8
  %_M_ptr = getelementptr inbounds %"class.std::__shared_ptr.26", ptr %this1, i32 0, i32 0
  store ptr null, ptr %_M_ptr, align 8
  %_M_refcount = getelementptr inbounds %"class.std::__shared_ptr.26", ptr %this1, i32 0, i32 1
  call void @_ZNSt14__shared_countILN9__gnu_cxx12_Lock_policyE2EEC2Ev(ptr noundef nonnull align 8 dereferenceable(8) %_M_refcount) #3
  ret void
}

; Function Attrs: mustprogress nounwind uwtable
define linkonce_odr void @_ZNSt10shared_ptrIN7openvdb5v11_011compression4PageEEC2Ev(ptr noundef nonnull align 8 dereferenceable(16) %this) unnamed_addr #4 comdat align 2 {
entry:
  %this.addr = alloca ptr, align 8
  store ptr %this, ptr %this.addr, align 8
  %this1 = load ptr, ptr %this.addr, align 8
  call void @_ZNSt12__shared_ptrIN7openvdb5v11_011compression4PageELN9__gnu_cxx12_Lock_policyE2EEC2Ev(ptr noundef nonnull align 8 dereferenceable(16) %this1) #3
  ret void
}

; Function Attrs: mustprogress nounwind uwtable
define void @_ZN7openvdb5v11_011compression16PagedInputStreamC2ERSi(ptr noundef nonnull align 8 dereferenceable(33) %this, ptr noundef nonnull align 8 dereferenceable(16) %is) unnamed_addr #4 align 2 {
entry:
  %this.addr = alloca ptr, align 8
  %is.addr = alloca ptr, align 8
  store ptr %this, ptr %this.addr, align 8
  store ptr %is, ptr %is.addr, align 8
  %this1 = load ptr, ptr %this.addr, align 8
  %mByteIndex = getelementptr inbounds %"class.openvdb::v11_0::compression::PagedInputStream", ptr %this1, i32 0, i32 0
  store i32 0, ptr %mByteIndex, align 8
  %mUncompressedBytes = getelementptr inbounds %"class.openvdb::v11_0::compression::PagedInputStream", ptr %this1, i32 0, i32 1
  store i32 0, ptr %mUncompressedBytes, align 4
  %mIs = getelementptr inbounds %"class.openvdb::v11_0::compression::PagedInputStream", ptr %this1, i32 0, i32 2
  %0 = load ptr, ptr %is.addr, align 8
  store ptr %0, ptr %mIs, align 8
  %mPage = getelementptr inbounds %"class.openvdb::v11_0::compression::PagedInputStream", ptr %this1, i32 0, i32 3
  call void @_ZNSt10shared_ptrIN7openvdb5v11_011compression4PageEEC2Ev(ptr noundef nonnull align 8 dereferenceable(16) %mPage) #3
  %mSizeOnly = getelementptr inbounds %"class.openvdb::v11_0::compression::PagedInputStream", ptr %this1, i32 0, i32 4
  store i8 0, ptr %mSizeOnly, align 8
  ret void
}