; Function Attrs: mustprogress nofree norecurse nosync nounwind willreturn memory(argmem: write) uwtable
define void @_ZN7openvdb5v11_011compression16PagedInputStreamC2ERSi(ptr nocapture noundef nonnull writeonly align 8 dereferenceable(33) %this, ptr noundef nonnull align 8 dereferenceable(16) %is) unnamed_addr #11 align 2 {
entry:
  store i32 0, ptr %this, align 8
  %mUncompressedBytes = getelementptr inbounds i8, ptr %this, i64 4
  store i32 0, ptr %mUncompressedBytes, align 4
  %mIs = getelementptr inbounds i8, ptr %this, i64 8
  store ptr %is, ptr %mIs, align 8
  %mPage = getelementptr inbounds i8, ptr %this, i64 16
  tail call void @llvm.memset.p0.i64(ptr noundef nonnull align 8 dereferenceable(17) %mPage, i8 0, i64 17, i1 false)
  ret void
}